target datalayout = "e-m:e-p270:32:32-p271:32:32-p272:64:64-i64:64-i128:128-f80:128-n8:16:32:64-S128"
target triple = "x86_64-pc-linux-gnu"

%struct.except_id_t = type { i64, i64 }
%struct._packet_info = type { ptr, ptr, i32, i32, %struct.nstime_t, %struct.nstime_t, %struct.nstime_t, i8, ptr, ptr, ptr, ptr, %struct._address, %struct._address, %struct._address, %struct._address, %struct._address, %struct._address, i32, ptr, i8, [3 x i8], %struct.anon, i32, i32, i32, i32, ptr, i8, ptr, ptr, i16, i16, i32, i32, i16, i32, i32, ptr, ptr, ptr, i8, i8, i16, i16, i16, i32, i16, i16, ptr, ptr, ptr, ptr, ptr, i32, i32 }
%struct.nstime_t = type { i64, i32 }
%struct._address = type { i32, i32, ptr, ptr }
%struct.anon = type { i8, [3 x i8] }
%struct.except_stacknode = type { ptr, i32, %union.anon }
%union.anon = type { ptr }
%struct.except_catch = type { ptr, i64, %struct.except_t, [1 x %struct.__jmp_buf_tag] }
%struct.except_t = type { %struct.except_id_t, ptr, ptr }
%struct.__jmp_buf_tag = type { [8 x i64], i32, %struct.__sigset_t }
%struct.__sigset_t = type { [16 x i64] }

@eth_handle = internal global ptr null, align 8
@dissect_eth_frame.catch_spec = internal constant [1 x %struct.except_id_t] [%struct.except_id_t { i64 1, i64 0 }], align 16

; Function Attrs: null_pointer_is_valid sspstrong uwtable
define internal i32 @dissect_eth_frame(ptr noundef %0, ptr noundef %1, ptr noundef %2, i32 noundef %3, i32 noundef %4) #0 {
  %6 = alloca ptr, align 8
  %7 = alloca ptr, align 8
  %8 = alloca ptr, align 8
  %9 = alloca i32, align 4
  %10 = alloca i32, align 4
  %11 = alloca ptr, align 8
  %12 = alloca ptr, align 8
  %13 = alloca i32, align 4
  %14 = alloca %struct.except_stacknode, align 8
  %15 = alloca %struct.except_catch, align 8
  store ptr %0, ptr %6, align 8
  store ptr %1, ptr %7, align 8
  store ptr %2, ptr %8, align 8
  store volatile i32 %3, ptr %9, align 4
  store i32 %4, ptr %10, align 4
  call void @llvm.lifetime.start.p0(i64 8, ptr %11) #6
  %16 = load ptr, ptr %7, align 8
  %17 = getelementptr inbounds nuw %struct._packet_info, ptr %16, i32 0, i32 1
  %18 = load ptr, ptr %17, align 8
  call void @col_set_writable(ptr noundef %18, i32 noundef -1, i1 noundef zeroext false)
  %19 = load ptr, ptr %6, align 8
  %20 = load volatile i32, ptr %9, align 4
  %21 = load i32, ptr %10, align 4
  %22 = call ptr @tvb_new_subset_length(ptr noundef %19, i32 noundef %20, i32 noundef %21)
  store ptr %22, ptr %11, align 8
  call void @llvm.lifetime.start.p0(i64 8, ptr %12) #6
  call void @llvm.lifetime.start.p0(i64 4, ptr %13) #6
  store volatile i32 0, ptr %13, align 4
  call void @llvm.lifetime.start.p0(i64 24, ptr %14) #6
  call void @llvm.lifetime.start.p0(i64 248, ptr %15) #6
  call void @except_setup_try(ptr noundef %14, ptr noundef %15, ptr noundef @dissect_eth_frame.catch_spec, i64 noundef 1)
  %23 = getelementptr inbounds nuw %struct.except_catch, ptr %15, i32 0, i32 3
  %24 = getelementptr inbounds [1 x %struct.__jmp_buf_tag], ptr %23, i64 0, i64 0
  %25 = call i32 @_setjmp(ptr noundef %24) #8
  %26 = icmp ne i32 %25, 0
  br i1 %26, label %27, label %29

27:                                               ; preds = %5
  %28 = getelementptr inbounds nuw %struct.except_catch, ptr %15, i32 0, i32 2
  store volatile ptr %28, ptr %12, align 8
  br label %30

29:                                               ; preds = %5
  store volatile ptr null, ptr %12, align 8
  br label %30

30:                                               ; preds = %29, %27
  %31 = load volatile i32, ptr %13, align 4
  %32 = and i32 %31, 1
  %33 = icmp ne i32 %32, 0
  br i1 %33, label %34, label %37

34:                                               ; preds = %30
  %35 = load volatile i32, ptr %13, align 4
  %36 = or i32 %35, 2
  store volatile i32 %36, ptr %13, align 4
  br label %37

37:                                               ; preds = %34, %30
  %38 = load volatile i32, ptr %13, align 4
  %39 = and i32 %38, -2
  store volatile i32 %39, ptr %13, align 4
  %40 = load volatile i32, ptr %13, align 4
  %41 = icmp eq i32 %40, 0
  br i1 %41, label %42, label %51

42:                                               ; preds = %37
  %43 = load volatile ptr, ptr %12, align 8
  %44 = icmp eq ptr %43, null
  br i1 %44, label %45, label %51

45:                                               ; preds = %42
  %46 = load ptr, ptr @eth_handle, align 8
  %47 = load ptr, ptr %11, align 8
  %48 = load ptr, ptr %7, align 8
  %49 = load ptr, ptr %8, align 8
  %50 = call i32 @call_dissector(ptr noundef %46, ptr noundef %47, ptr noundef %48, ptr noundef %49)
  br label %51

51:                                               ; preds = %45, %42, %37
  %52 = load volatile i32, ptr %13, align 4
  %53 = icmp eq i32 %52, 0
  br i1 %53, label %54, label %96

54:                                               ; preds = %51
  %55 = load volatile ptr, ptr %12, align 8
  %56 = icmp ne ptr %55, null
  br i1 %56, label %57, label %96

57:                                               ; preds = %54
  %58 = load volatile ptr, ptr %12, align 8
  %59 = getelementptr inbounds nuw %struct.except_t, ptr %58, i32 0, i32 0
  %60 = getelementptr inbounds nuw %struct.except_id_t, ptr %59, i32 0, i32 1
  %61 = load volatile i64, ptr %60, align 8
  %62 = icmp eq i64 %61, 3
  br i1 %62, label %81, label %63

63:                                               ; preds = %57
  %64 = load volatile ptr, ptr %12, align 8
  %65 = getelementptr inbounds nuw %struct.except_t, ptr %64, i32 0, i32 0
  %66 = getelementptr inbounds nuw %struct.except_id_t, ptr %65, i32 0, i32 1
  %67 = load volatile i64, ptr %66, align 8
  %68 = icmp eq i64 %67, 2
  br i1 %68, label %81, label %69

69:                                               ; preds = %63
  %70 = load volatile ptr, ptr %12, align 8
  %71 = getelementptr inbounds nuw %struct.except_t, ptr %70, i32 0, i32 0
  %72 = getelementptr inbounds nuw %struct.except_id_t, ptr %71, i32 0, i32 1
  %73 = load volatile i64, ptr %72, align 8
  %74 = icmp eq i64 %73, 7
  br i1 %74, label %81, label %75

75:                                               ; preds = %69
  %76 = load volatile ptr, ptr %12, align 8
  %77 = getelementptr inbounds nuw %struct.except_t, ptr %76, i32 0, i32 0
  %78 = getelementptr inbounds nuw %struct.except_id_t, ptr %77, i32 0, i32 1
  %79 = load volatile i64, ptr %78, align 8
  %80 = icmp eq i64 %79, 9
  br i1 %80, label %81, label %96

81:                                               ; preds = %75, %69, %63, %57
  %82 = load volatile i32, ptr %13, align 4
  %83 = or i32 %82, 1
  store volatile i32 %83, ptr %13, align 4
  %84 = icmp ne i32 %83, 0
  br i1 %84, label %85, label %96

85:                                               ; preds = %81
  %86 = load ptr, ptr %11, align 8
  %87 = load ptr, ptr %7, align 8
  %88 = load ptr, ptr %8, align 8
  %89 = load volatile ptr, ptr %12, align 8
  %90 = getelementptr inbounds nuw %struct.except_t, ptr %89, i32 0, i32 0
  %91 = getelementptr inbounds nuw %struct.except_id_t, ptr %90, i32 0, i32 1
  %92 = load volatile i64, ptr %91, align 8
  %93 = load volatile ptr, ptr %12, align 8
  %94 = getelementptr inbounds nuw %struct.except_t, ptr %93, i32 0, i32 1
  %95 = load volatile ptr, ptr %94, align 8
  call void @show_exception(ptr noundef %86, ptr noundef %87, ptr noundef %88, i64 noundef %92, ptr noundef %95)
  br label %96

96:                                               ; preds = %85, %81, %75, %54, %51
  %97 = load volatile i32, ptr %13, align 4
  %98 = and i32 %97, 1
  %99 = icmp ne i32 %98, 0
  br i1 %99, label %105, label %100

100:                                              ; preds = %96
  %101 = load volatile ptr, ptr %12, align 8
  %102 = icmp ne ptr %101, null
  br i1 %102, label %103, label %105

103:                                              ; preds = %100
  %104 = load volatile ptr, ptr %12, align 8
  call void @except_rethrow(ptr noundef %104) #7
  unreachable

105:                                              ; preds = %100, %96
  %106 = getelementptr inbounds nuw %struct.except_catch, ptr %15, i32 0, i32 2
  %107 = getelementptr inbounds nuw %struct.except_t, ptr %106, i32 0, i32 2
  %108 = load volatile ptr, ptr %107, align 8
  call void @except_free(ptr noundef %108)
  %109 = call ptr @except_pop()
  call void @llvm.lifetime.end.p0(i64 248, ptr %15) #6
  call void @llvm.lifetime.end.p0(i64 24, ptr %14) #6
  call void @llvm.lifetime.end.p0(i64 4, ptr %13) #6
  call void @llvm.lifetime.end.p0(i64 8, ptr %12) #6
  %110 = load i32, ptr %10, align 4
  %111 = load volatile i32, ptr %9, align 4
  %112 = add i32 %111, %110
  store volatile i32 %112, ptr %9, align 4
  %113 = load ptr, ptr %7, align 8
  %114 = getelementptr inbounds nuw %struct._packet_info, ptr %113, i32 0, i32 1
  %115 = load ptr, ptr %114, align 8
  call void @col_set_writable(ptr noundef %115, i32 noundef -1, i1 noundef zeroext true)
  %116 = load volatile i32, ptr %9, align 4
  call void @llvm.lifetime.end.p0(i64 8, ptr %11) #6
  ret i32 %116
}