; Function Attrs: null_pointer_is_valid sspstrong uwtable
define internal fastcc i32 @dissect_eth_frame(ptr noundef %0, ptr noundef %1, ptr noundef %2, i32 noundef range(i32 18, 31) %3, i32 noundef range(i32 -3, -18) %4) unnamed_addr #0 {
  %6 = alloca i32, align 4
  %7 = alloca ptr, align 8
  %8 = alloca i32, align 4
  %9 = alloca %struct.except_stacknode, align 8
  %10 = alloca %struct.except_catch, align 8
  store volatile i32 %3, ptr %6, align 4
  %11 = getelementptr inbounds nuw i8, ptr %1, i64 8
  %12 = load ptr, ptr %11, align 8
  call void @col_set_writable(ptr noundef %12, i32 noundef -1, i1 noundef zeroext false)
  %.0..0..0..0.20 = load volatile i32, ptr %6, align 4
  %13 = call ptr @tvb_new_subset_length(ptr noundef %0, i32 noundef %.0..0..0..0.20, i32 noundef %4)
  call void @llvm.lifetime.start.p0(i64 8, ptr nonnull %7)
  call void @llvm.lifetime.start.p0(i64 4, ptr nonnull %8)
  store volatile i32 0, ptr %8, align 4
  call void @llvm.lifetime.start.p0(i64 24, ptr nonnull %9) #6
  call void @llvm.lifetime.start.p0(i64 248, ptr nonnull %10) #6
  call void @except_setup_try(ptr noundef nonnull %9, ptr noundef nonnull %10, ptr noundef nonnull @dissect_eth_frame.catch_spec, i64 noundef 1)
  %14 = getelementptr inbounds nuw i8, ptr %10, i64 48
  %15 = call i32 @_setjmp(ptr noundef nonnull %14) #7
  %.not = icmp eq i32 %15, 0
  %16 = getelementptr inbounds nuw i8, ptr %10, i64 16
  %.sink = select i1 %.not, ptr null, ptr %16
  store volatile ptr %.sink, ptr %7, align 8
  %.0..0..0..0. = load volatile i32, ptr %8, align 4
  %17 = and i32 %.0..0..0..0., 1
  %.not30 = icmp eq i32 %17, 0
  br i1 %.not30, label %20, label %18

18:                                               ; preds = %5
  %.0..0..0..0.1 = load volatile i32, ptr %8, align 4
  %19 = or i32 %.0..0..0..0.1, 2
  store volatile i32 %19, ptr %8, align 4
  br label %20

20:                                               ; preds = %18, %5
  %.0..0..0..0.2 = load volatile i32, ptr %8, align 4
  %21 = and i32 %.0..0..0..0.2, -2
  store volatile i32 %21, ptr %8, align 4
  %.0..0..0..0.3 = load volatile i32, ptr %8, align 4
  %22 = icmp eq i32 %.0..0..0..0.3, 0
  br i1 %22, label %23, label %28

23:                                               ; preds = %20
  %.0..0..0..0.7 = load volatile ptr, ptr %7, align 8
  %24 = icmp eq ptr %.0..0..0..0.7, null
  br i1 %24, label %25, label %28

25:                                               ; preds = %23
  %26 = load ptr, ptr @eth_handle, align 8
  %27 = call i32 @call_dissector(ptr noundef %26, ptr noundef %13, ptr noundef %1, ptr noundef %2)
  br label %28

28:                                               ; preds = %25, %23, %20
  %.0..0..0..0.4 = load volatile i32, ptr %8, align 4
  %29 = icmp eq i32 %.0..0..0..0.4, 0
  br i1 %29, label %30, label %53

30:                                               ; preds = %28
  %.0..0..0..0.8 = load volatile ptr, ptr %7, align 8
  %.not31 = icmp eq ptr %.0..0..0..0.8, null
  br i1 %.not31, label %53, label %31

31:                                               ; preds = %30
  %.0..0..0..0.9 = load volatile ptr, ptr %7, align 8
  %32 = getelementptr inbounds nuw i8, ptr %.0..0..0..0.9, i64 8
  %33 = load volatile i64, ptr %32, align 8
  %34 = icmp eq i64 %33, 3
  br i1 %34, label %47, label %35

35:                                               ; preds = %31
  %.0..0..0..0.10 = load volatile ptr, ptr %7, align 8
  %36 = getelementptr inbounds nuw i8, ptr %.0..0..0..0.10, i64 8
  %37 = load volatile i64, ptr %36, align 8
  %38 = icmp eq i64 %37, 2
  br i1 %38, label %47, label %39

39:                                               ; preds = %35
  %.0..0..0..0.11 = load volatile ptr, ptr %7, align 8
  %40 = getelementptr inbounds nuw i8, ptr %.0..0..0..0.11, i64 8
  %41 = load volatile i64, ptr %40, align 8
  %42 = icmp eq i64 %41, 7
  br i1 %42, label %47, label %43

43:                                               ; preds = %39
  %.0..0..0..0.12 = load volatile ptr, ptr %7, align 8
  %44 = getelementptr inbounds nuw i8, ptr %.0..0..0..0.12, i64 8
  %45 = load volatile i64, ptr %44, align 8
  %46 = icmp eq i64 %45, 9
  br i1 %46, label %47, label %53

47:                                               ; preds = %43, %39, %35, %31
  %.0..0..0..0.5 = load volatile i32, ptr %8, align 4
  %48 = or i32 %.0..0..0..0.5, 1
  store volatile i32 %48, ptr %8, align 4
  %.0..0..0..0.13 = load volatile ptr, ptr %7, align 8
  %49 = getelementptr inbounds nuw i8, ptr %.0..0..0..0.13, i64 8
  %50 = load volatile i64, ptr %49, align 8
  %.0..0..0..0.14 = load volatile ptr, ptr %7, align 8
  %51 = getelementptr inbounds nuw i8, ptr %.0..0..0..0.14, i64 16
  %52 = load volatile ptr, ptr %51, align 8
  call void @show_exception(ptr noundef %13, ptr noundef %1, ptr noundef %2, i64 noundef %50, ptr noundef %52)
  br label %53

53:                                               ; preds = %47, %43, %30, %28
  %.0..0..0..0.6 = load volatile i32, ptr %8, align 4
  %54 = and i32 %.0..0..0..0.6, 1
  %.not32 = icmp eq i32 %54, 0
  br i1 %.not32, label %55, label %57

55:                                               ; preds = %53
  %.0..0..0..0.15 = load volatile ptr, ptr %7, align 8
  %.not33 = icmp eq ptr %.0..0..0..0.15, null
  br i1 %.not33, label %57, label %56

56:                                               ; preds = %55
  %.0..0..0..0.16 = load volatile ptr, ptr %7, align 8
  call void @except_rethrow(ptr noundef %.0..0..0..0.16) #5
  unreachable

57:                                               ; preds = %55, %53
  %58 = getelementptr inbounds nuw i8, ptr %10, i64 40
  %59 = load volatile ptr, ptr %58, align 8
  call void @except_free(ptr noundef %59)
  %60 = call ptr @except_pop()
  call void @llvm.lifetime.end.p0(i64 248, ptr nonnull %10) #6
  call void @llvm.lifetime.end.p0(i64 24, ptr nonnull %9) #6
  call void @llvm.lifetime.end.p0(i64 4, ptr nonnull %8)
  call void @llvm.lifetime.end.p0(i64 8, ptr nonnull %7)
  %.0..0..0..0.21 = load volatile i32, ptr %6, align 4
  %61 = add i32 %.0..0..0..0.21, %4
  store volatile i32 %61, ptr %6, align 4
  %62 = load ptr, ptr %11, align 8
  call void @col_set_writable(ptr noundef %62, i32 noundef -1, i1 noundef zeroext true)
  %.0..0..0..0.22 = load volatile i32, ptr %6, align 4
  ret i32 %.0..0..0..0.22
}